target datalayout = "e-m:e-p270:32:32-p271:32:32-p272:64:64-i64:64-i128:128-f80:128-n8:16:32:64-S128"
target triple = "x86_64-pc-linux-gnu"

%struct.H5VL_connector_prop_t = type { ptr, ptr }
%struct.H5CX_node_t = type { %struct.H5CX_t, ptr }
%struct.H5CX_t = type { i64, ptr, i64, ptr, i64, ptr, i64, ptr, i64, ptr, i64, ptr, i64, i32, i64, i8, ptr, i8, ptr, i8, i32, i8, [3 x double], i8, i64, i8, i32, i8, %struct.H5Z_cb_t, i8, ptr, i8, %struct.H5T_vlen_alloc_info_t, i8, %struct.H5T_conv_cb_t, i8, i32, i8, i8, i8, i32, i8, i8, i32, i8, i8, i32, i8, i32, i8, i64, i8, i8, i8, i8, i8, ptr, i8, ptr, i8, i32, i8, i32, i8, %struct.H5VL_connector_prop_t, i8, ptr, i8 }
%struct.H5Z_cb_t = type { ptr, ptr }
%struct.H5T_vlen_alloc_info_t = type { ptr, ptr, ptr, ptr }
%struct.H5T_conv_cb_t = type { ptr, ptr }

@H5P_init_g = external global i8, align 1
@H5_libterm_g = external global i8, align 1
@.str.2 = private unnamed_addr constant [101 x i8] c"generated/home/dtcxzyw/WorkSpace/Projects/compilers/llvm-opt-benchmark/bench/hdf5/hdf5/src/H5Pfapl.c\00", align 1
@H5E_CANTSET_g = external global i64, align 8
@H5E_PLIST_g = external global i64, align 8
@H5_libinit_g = external global i8, align 1
@H5E_FUNC_g = external global i64, align 8
@H5E_CANTINIT_g = external global i64, align 8
@.str.15 = private unnamed_addr constant [30 x i8] c"library initialization failed\00", align 1
@.str.16 = private unnamed_addr constant [32 x i8] c"interface initialization failed\00", align 1
@.str.17 = private unnamed_addr constant [22 x i8] c"can't set API context\00", align 1
@H5E_ARGS_g = external global i64, align 8
@H5E_BADVALUE_g = external global i64, align 8
@H5E_BADTYPE_g = external global i64, align 8
@.str.29 = private unnamed_addr constant [20 x i8] c"not a property list\00", align 1
@.str.30 = private unnamed_addr constant [22 x i8] c"can't set driver info\00", align 1
@__func__.H5Pset_driver_by_name = private unnamed_addr constant [22 x i8] c"H5Pset_driver_by_name\00", align 1
@.str.33 = private unnamed_addr constant [37 x i8] c"driver_name parameter cannot be NULL\00", align 1
@.str.34 = private unnamed_addr constant [48 x i8] c"driver_name parameter cannot be an empty string\00", align 1

; Function Attrs: nounwind uwtable
define i32 @H5Pset_driver_by_name(i64 noundef %0, ptr noundef %1, ptr noundef %2) #0 {
  %4 = alloca i64, align 8
  %5 = alloca ptr, align 8
  %6 = alloca ptr, align 8
  %7 = alloca ptr, align 8
  %8 = alloca i32, align 4
  %9 = alloca %struct.H5CX_node_t, align 8
  %10 = alloca i8, align 1
  %11 = alloca i8, align 1
  store i64 %0, ptr %4, align 8, !tbaa !8
  store ptr %1, ptr %5, align 8, !tbaa !26
  store ptr %2, ptr %6, align 8, !tbaa !26
  call void @llvm.lifetime.start.p0(i64 8, ptr %7) #10
  call void @llvm.lifetime.start.p0(i64 4, ptr %8) #10
  store i32 0, ptr %8, align 4, !tbaa !20
  call void @llvm.lifetime.start.p0(i64 480, ptr %9) #10
  call void @llvm.memset.p0.i64(ptr align 8 %9, i8 0, i64 480, i1 false)
  call void @llvm.lifetime.start.p0(i64 1, ptr %10) #10
  store i8 0, ptr %10, align 1, !tbaa !22
  call void @llvm.lifetime.start.p0(i64 1, ptr %11) #10
  store i8 0, ptr %11, align 1, !tbaa !22
  br label %12

12:                                               ; preds = %3
  %13 = load i8, ptr @H5_libinit_g, align 1, !tbaa !22, !range !24, !noundef !25
  %14 = trunc i8 %13 to i1
  br i1 %14, label %19, label %15

15:                                               ; preds = %12
  %16 = load i8, ptr @H5_libterm_g, align 1, !tbaa !22, !range !24, !noundef !25
  %17 = trunc i8 %16 to i1
  %18 = xor i1 %17, true
  br label %19

19:                                               ; preds = %15, %12
  %20 = phi i1 [ false, %12 ], [ %18, %15 ]
  %21 = xor i1 %20, true
  %22 = xor i1 %21, true
  %23 = zext i1 %22 to i32
  %24 = sext i32 %23 to i64
  %25 = call i64 @llvm.expect.i64(i64 %24, i64 0)
  %26 = icmp ne i64 %25, 0
  br i1 %26, label %27, label %56

27:                                               ; preds = %19
  %28 = call i32 @H5_init_library()
  %29 = icmp slt i32 %28, 0
  %30 = xor i1 %29, true
  %31 = xor i1 %30, true
  %32 = zext i1 %31 to i32
  %33 = sext i32 %32 to i64
  %34 = call i64 @llvm.expect.i64(i64 %33, i64 0)
  %35 = icmp ne i64 %34, 0
  br i1 %35, label %36, label %55

36:                                               ; preds = %27
  br label %37

37:                                               ; preds = %36
  br label %38

38:                                               ; preds = %37
  br label %39

39:                                               ; preds = %38
  %40 = load i64, ptr @H5E_FUNC_g, align 8, !tbaa !8
  %41 = load i64, ptr @H5E_CANTINIT_g, align 8, !tbaa !8
  %42 = call i32 (ptr, ptr, i32, i64, i64, ptr, ...) @H5E_printf_stack(ptr noundef @.str.2, ptr noundef @__func__.H5Pset_driver_by_name, i32 noundef 1298, i64 noundef %40, i64 noundef %41, ptr noundef @.str.15)
  br label %43

43:                                               ; preds = %39
  br label %44

44:                                               ; preds = %43
  store i8 1, ptr %11, align 1, !tbaa !22
  %45 = load i8, ptr %11, align 1, !tbaa !22, !range !24, !noundef !25
  %46 = trunc i8 %45 to i1
  %47 = zext i1 %46 to i8
  store i8 %47, ptr %11, align 1, !tbaa !22
  br label %48

48:                                               ; preds = %44
  br label %49

49:                                               ; preds = %48
  br label %50

50:                                               ; preds = %49
  store i32 -1, ptr %8, align 4, !tbaa !20
  br label %223

51:                                               ; No predecessors!
  br label %52

52:                                               ; preds = %51
  br label %53

53:                                               ; preds = %52
  br label %54

54:                                               ; preds = %53
  br label %55

55:                                               ; preds = %54, %27
  br label %56

56:                                               ; preds = %55, %19
  %57 = load i8, ptr @H5P_init_g, align 1, !tbaa !22, !range !24, !noundef !25
  %58 = trunc i8 %57 to i1
  br i1 %58, label %63, label %59

59:                                               ; preds = %56
  %60 = load i8, ptr @H5_libterm_g, align 1, !tbaa !22, !range !24, !noundef !25
  %61 = trunc i8 %60 to i1
  %62 = xor i1 %61, true
  br label %63

63:                                               ; preds = %59, %56
  %64 = phi i1 [ false, %56 ], [ %62, %59 ]
  %65 = xor i1 %64, true
  %66 = xor i1 %65, true
  %67 = zext i1 %66 to i32
  %68 = sext i32 %67 to i64
  %69 = call i64 @llvm.expect.i64(i64 %68, i64 0)
  %70 = icmp ne i64 %69, 0
  br i1 %70, label %71, label %94

71:                                               ; preds = %63
  store i8 1, ptr @H5P_init_g, align 1, !tbaa !22
  %72 = call i32 @H5P__init_package()
  %73 = icmp slt i32 %72, 0
  br i1 %73, label %74, label %93

74:                                               ; preds = %71
  store i8 0, ptr @H5P_init_g, align 1, !tbaa !22
  br label %75

75:                                               ; preds = %74
  br label %76

76:                                               ; preds = %75
  br label %77

77:                                               ; preds = %76
  %78 = load i64, ptr @H5E_FUNC_g, align 8, !tbaa !8
  %79 = load i64, ptr @H5E_CANTINIT_g, align 8, !tbaa !8
  %80 = call i32 (ptr, ptr, i32, i64, i64, ptr, ...) @H5E_printf_stack(ptr noundef @.str.2, ptr noundef @__func__.H5Pset_driver_by_name, i32 noundef 1298, i64 noundef %78, i64 noundef %79, ptr noundef @.str.16)
  br label %81

81:                                               ; preds = %77
  br label %82

82:                                               ; preds = %81
  store i8 1, ptr %11, align 1, !tbaa !22
  %83 = load i8, ptr %11, align 1, !tbaa !22, !range !24, !noundef !25
  %84 = trunc i8 %83 to i1
  %85 = zext i1 %84 to i8
  store i8 %85, ptr %11, align 1, !tbaa !22
  br label %86

86:                                               ; preds = %82
  br label %87

87:                                               ; preds = %86
  br label %88

88:                                               ; preds = %87
  store i32 -1, ptr %8, align 4, !tbaa !20
  br label %223

89:                                               ; No predecessors!
  br label %90

90:                                               ; preds = %89
  br label %91

91:                                               ; preds = %90
  br label %92

92:                                               ; preds = %91
  br label %93

93:                                               ; preds = %92, %71
  br label %94

94:                                               ; preds = %93, %63
  br label %95

95:                                               ; preds = %94
  br label %96

96:                                               ; preds = %95
  br label %97

97:                                               ; preds = %96
  %98 = call i32 @H5CX_push(ptr noundef %9)
  %99 = icmp slt i32 %98, 0
  %100 = xor i1 %99, true
  %101 = xor i1 %100, true
  %102 = zext i1 %101 to i32
  %103 = sext i32 %102 to i64
  %104 = call i64 @llvm.expect.i64(i64 %103, i64 0)
  %105 = icmp ne i64 %104, 0
  br i1 %105, label %106, label %125

106:                                              ; preds = %97
  br label %107

107:                                              ; preds = %106
  br label %108

108:                                              ; preds = %107
  br label %109

109:                                              ; preds = %108
  %110 = load i64, ptr @H5E_FUNC_g, align 8, !tbaa !8
  %111 = load i64, ptr @H5E_CANTSET_g, align 8, !tbaa !8
  %112 = call i32 (ptr, ptr, i32, i64, i64, ptr, ...) @H5E_printf_stack(ptr noundef @.str.2, ptr noundef @__func__.H5Pset_driver_by_name, i32 noundef 1298, i64 noundef %110, i64 noundef %111, ptr noundef @.str.17)
  br label %113

113:                                              ; preds = %109
  br label %114

114:                                              ; preds = %113
  store i8 1, ptr %11, align 1, !tbaa !22
  %115 = load i8, ptr %11, align 1, !tbaa !22, !range !24, !noundef !25
  %116 = trunc i8 %115 to i1
  %117 = zext i1 %116 to i8
  store i8 %117, ptr %11, align 1, !tbaa !22
  br label %118

118:                                              ; preds = %114
  br label %119

119:                                              ; preds = %118
  br label %120

120:                                              ; preds = %119
  store i32 -1, ptr %8, align 4, !tbaa !20
  br label %223

121:                                              ; No predecessors!
  br label %122

122:                                              ; preds = %121
  br label %123

123:                                              ; preds = %122
  br label %124

124:                                              ; preds = %123
  br label %126

125:                                              ; preds = %97
  store i8 1, ptr %10, align 1, !tbaa !22
  br label %126

126:                                              ; preds = %125, %124
  br label %127

127:                                              ; preds = %126
  br label %128

128:                                              ; preds = %127
  %129 = call i32 @H5E_clear_stack()
  %130 = load i64, ptr %4, align 8, !tbaa !8
  %131 = call ptr @H5I_object_verify(i64 noundef %130, i32 noundef 11)
  store ptr %131, ptr %7, align 8, !tbaa !28
  %132 = icmp eq ptr null, %131
  br i1 %132, label %133, label %152

133:                                              ; preds = %128
  br label %134

134:                                              ; preds = %133
  br label %135

135:                                              ; preds = %134
  br label %136

136:                                              ; preds = %135
  %137 = load i64, ptr @H5E_ARGS_g, align 8, !tbaa !8
  %138 = load i64, ptr @H5E_BADTYPE_g, align 8, !tbaa !8
  %139 = call i32 (ptr, ptr, i32, i64, i64, ptr, ...) @H5E_printf_stack(ptr noundef @.str.2, ptr noundef @__func__.H5Pset_driver_by_name, i32 noundef 1302, i64 noundef %137, i64 noundef %138, ptr noundef @.str.29)
  br label %140

140:                                              ; preds = %136
  br label %141

141:                                              ; preds = %140
  store i8 1, ptr %11, align 1, !tbaa !22
  %142 = load i8, ptr %11, align 1, !tbaa !22, !range !24, !noundef !25
  %143 = trunc i8 %142 to i1
  %144 = zext i1 %143 to i8
  store i8 %144, ptr %11, align 1, !tbaa !22
  br label %145

145:                                              ; preds = %141
  br label %146

146:                                              ; preds = %145
  br label %147

147:                                              ; preds = %146
  store i32 -1, ptr %8, align 4, !tbaa !20
  br label %223

148:                                              ; No predecessors!
  br label %149

149:                                              ; preds = %148
  br label %150

150:                                              ; preds = %149
  br label %151

151:                                              ; preds = %150
  br label %152

152:                                              ; preds = %151, %128
  %153 = load ptr, ptr %5, align 8, !tbaa !26
  %154 = icmp ne ptr %153, null
  br i1 %154, label %174, label %155

155:                                              ; preds = %152
  br label %156

156:                                              ; preds = %155
  br label %157

157:                                              ; preds = %156
  br label %158

158:                                              ; preds = %157
  %159 = load i64, ptr @H5E_ARGS_g, align 8, !tbaa !8
  %160 = load i64, ptr @H5E_BADVALUE_g, align 8, !tbaa !8
  %161 = call i32 (ptr, ptr, i32, i64, i64, ptr, ...) @H5E_printf_stack(ptr noundef @.str.2, ptr noundef @__func__.H5Pset_driver_by_name, i32 noundef 1304, i64 noundef %159, i64 noundef %160, ptr noundef @.str.33)
  br label %162

162:                                              ; preds = %158
  br label %163

163:                                              ; preds = %162
  store i8 1, ptr %11, align 1, !tbaa !22
  %164 = load i8, ptr %11, align 1, !tbaa !22, !range !24, !noundef !25
  %165 = trunc i8 %164 to i1
  %166 = zext i1 %165 to i8
  store i8 %166, ptr %11, align 1, !tbaa !22
  br label %167

167:                                              ; preds = %163
  br label %168

168:                                              ; preds = %167
  br label %169

169:                                              ; preds = %168
  store i32 -1, ptr %8, align 4, !tbaa !20
  br label %223

170:                                              ; No predecessors!
  br label %171

171:                                              ; preds = %170
  br label %172

172:                                              ; preds = %171
  br label %173

173:                                              ; preds = %172
  br label %174

174:                                              ; preds = %173, %152
  %175 = load ptr, ptr %5, align 8, !tbaa !26
  %176 = load i8, ptr %175, align 1, !tbaa !27
  %177 = icmp ne i8 %176, 0
  br i1 %177, label %197, label %178

178:                                              ; preds = %174
  br label %179

179:                                              ; preds = %178
  br label %180

180:                                              ; preds = %179
  br label %181

181:                                              ; preds = %180
  %182 = load i64, ptr @H5E_ARGS_g, align 8, !tbaa !8
  %183 = load i64, ptr @H5E_BADVALUE_g, align 8, !tbaa !8
  %184 = call i32 (ptr, ptr, i32, i64, i64, ptr, ...) @H5E_printf_stack(ptr noundef @.str.2, ptr noundef @__func__.H5Pset_driver_by_name, i32 noundef 1306, i64 noundef %182, i64 noundef %183, ptr noundef @.str.34)
  br label %185

185:                                              ; preds = %181
  br label %186

186:                                              ; preds = %185
  store i8 1, ptr %11, align 1, !tbaa !22
  %187 = load i8, ptr %11, align 1, !tbaa !22, !range !24, !noundef !25
  %188 = trunc i8 %187 to i1
  %189 = zext i1 %188 to i8
  store i8 %189, ptr %11, align 1, !tbaa !22
  br label %190

190:                                              ; preds = %186
  br label %191

191:                                              ; preds = %190
  br label %192

192:                                              ; preds = %191
  store i32 -1, ptr %8, align 4, !tbaa !20
  br label %223

193:                                              ; No predecessors!
  br label %194

194:                                              ; preds = %193
  br label %195

195:                                              ; preds = %194
  br label %196

196:                                              ; preds = %195
  br label %197

197:                                              ; preds = %196, %174
  %198 = load ptr, ptr %7, align 8, !tbaa !28
  %199 = load ptr, ptr %5, align 8, !tbaa !26
  %200 = load ptr, ptr %6, align 8, !tbaa !26
  %201 = call i32 @H5P_set_driver_by_name(ptr noundef %198, ptr noundef %199, ptr noundef %200, i1 noundef zeroext true)
  %202 = icmp slt i32 %201, 0
  br i1 %202, label %203, label %222

203:                                              ; preds = %197
  br label %204

204:                                              ; preds = %203
  br label %205

205:                                              ; preds = %204
  br label %206

206:                                              ; preds = %205
  %207 = load i64, ptr @H5E_PLIST_g, align 8, !tbaa !8
  %208 = load i64, ptr @H5E_CANTSET_g, align 8, !tbaa !8
  %209 = call i32 (ptr, ptr, i32, i64, i64, ptr, ...) @H5E_printf_stack(ptr noundef @.str.2, ptr noundef @__func__.H5Pset_driver_by_name, i32 noundef 1310, i64 noundef %207, i64 noundef %208, ptr noundef @.str.30)
  br label %210

210:                                              ; preds = %206
  br label %211

211:                                              ; preds = %210
  store i8 1, ptr %11, align 1, !tbaa !22
  %212 = load i8, ptr %11, align 1, !tbaa !22, !range !24, !noundef !25
  %213 = trunc i8 %212 to i1
  %214 = zext i1 %213 to i8
  store i8 %214, ptr %11, align 1, !tbaa !22
  br label %215

215:                                              ; preds = %211
  br label %216

216:                                              ; preds = %215
  br label %217

217:                                              ; preds = %216
  store i32 -1, ptr %8, align 4, !tbaa !20
  br label %223

218:                                              ; No predecessors!
  br label %219

219:                                              ; preds = %218
  br label %220

220:                                              ; preds = %219
  br label %221

221:                                              ; preds = %220
  br label %222

222:                                              ; preds = %221, %197
  br label %223

223:                                              ; preds = %222, %217, %192, %169, %147, %120, %88, %50
  %224 = load i8, ptr %10, align 1, !tbaa !22, !range !24, !noundef !25
  %225 = trunc i8 %224 to i1
  %226 = xor i1 %225, true
  %227 = xor i1 %226, true
  %228 = zext i1 %227 to i32
  %229 = sext i32 %228 to i64
  %230 = call i64 @llvm.expect.i64(i64 %229, i64 1)
  %231 = icmp ne i64 %230, 0
  br i1 %231, label %232, label %234

232:                                              ; preds = %223
  %233 = call i32 @H5CX_pop(i1 noundef zeroext true)
  store i8 0, ptr %10, align 1, !tbaa !22
  br label %234

234:                                              ; preds = %232, %223
  %235 = load i8, ptr %11, align 1, !tbaa !22, !range !24, !noundef !25
  %236 = trunc i8 %235 to i1
  %237 = xor i1 %236, true
  %238 = xor i1 %237, true
  %239 = zext i1 %238 to i32
  %240 = sext i32 %239 to i64
  %241 = call i64 @llvm.expect.i64(i64 %240, i64 0)
  %242 = icmp ne i64 %241, 0
  br i1 %242, label %243, label %245

243:                                              ; preds = %234
  %244 = call i32 @H5E_dump_api_stack()
  br label %245

245:                                              ; preds = %243, %234
  %246 = load i32, ptr %8, align 4, !tbaa !20
  call void @llvm.lifetime.end.p0(i64 1, ptr %11) #10
  call void @llvm.lifetime.end.p0(i64 1, ptr %10) #10
  call void @llvm.lifetime.end.p0(i64 480, ptr %9) #10
  call void @llvm.lifetime.end.p0(i64 4, ptr %8) #10
  call void @llvm.lifetime.end.p0(i64 8, ptr %7) #10
  ret i32 %246
}