; Function Attrs: nounwind uwtable
define range(i32 -1, 1) i32 @H5Pset_driver_by_name(i64 noundef %0, ptr noundef %1, ptr noundef %2) local_unnamed_addr #0 {
  %4 = alloca %struct.H5CX_node_t, align 8
  call void @llvm.lifetime.start.p0(i64 480, ptr nonnull %4) #15
  call void @llvm.memset.p0.i64(ptr noundef nonnull align 8 dereferenceable(480) %4, i8 0, i64 480, i1 false)
  %5 = load i8, ptr @H5_libinit_g, align 1, !tbaa !16, !range !18, !noundef !19
  %6 = trunc nuw i8 %5 to i1
  %7 = load i8, ptr @H5_libterm_g, align 1, !range !18
  %8 = trunc nuw i8 %7 to i1
  %9 = select i1 %6, i1 true, i1 %8
  br i1 %9, label %17, label %10, !prof !20

10:                                               ; preds = %3
  %11 = tail call i32 @H5_init_library() #15
  %12 = icmp slt i32 %11, 0
  br i1 %12, label %13, label %._crit_edge, !prof !28

._crit_edge:                                      ; preds = %10
  %.pre = load i8, ptr @H5_libterm_g, align 1, !range !18
  br label %17

13:                                               ; preds = %10
  %14 = load i64, ptr @H5E_FUNC_g, align 8, !tbaa !3
  %15 = load i64, ptr @H5E_CANTINIT_g, align 8, !tbaa !3
  %16 = tail call i32 (ptr, ptr, i32, i64, i64, ptr, ...) @H5E_printf_stack(ptr noundef nonnull @.str.2, ptr noundef nonnull @__func__.H5Pset_driver_by_name, i32 noundef 1298, i64 noundef %14, i64 noundef %15, ptr noundef nonnull @.str.15) #15
  br label %.thread28

17:                                               ; preds = %._crit_edge, %3
  %18 = phi i8 [ %.pre, %._crit_edge ], [ %7, %3 ]
  %19 = load i8, ptr @H5P_init_g, align 1, !tbaa !16, !range !18, !noundef !19
  %20 = trunc nuw i8 %19 to i1
  %21 = trunc nuw i8 %18 to i1
  %22 = select i1 %20, i1 true, i1 %21
  br i1 %22, label %30, label %23, !prof !20

23:                                               ; preds = %17
  store i8 1, ptr @H5P_init_g, align 1, !tbaa !16
  %24 = tail call i32 @H5P__init_package() #15
  %25 = icmp slt i32 %24, 0
  br i1 %25, label %26, label %30, !prof !29

26:                                               ; preds = %23
  store i8 0, ptr @H5P_init_g, align 1, !tbaa !16
  %27 = load i64, ptr @H5E_FUNC_g, align 8, !tbaa !3
  %28 = load i64, ptr @H5E_CANTINIT_g, align 8, !tbaa !3
  %29 = tail call i32 (ptr, ptr, i32, i64, i64, ptr, ...) @H5E_printf_stack(ptr noundef nonnull @.str.2, ptr noundef nonnull @__func__.H5Pset_driver_by_name, i32 noundef 1298, i64 noundef %27, i64 noundef %28, ptr noundef nonnull @.str.16) #15
  br label %.thread28

30:                                               ; preds = %17, %23
  %31 = call i32 @H5CX_push(ptr noundef nonnull %4) #15
  %32 = icmp slt i32 %31, 0
  br i1 %32, label %33, label %37, !prof !28

33:                                               ; preds = %30
  %34 = load i64, ptr @H5E_FUNC_g, align 8, !tbaa !3
  %35 = load i64, ptr @H5E_CANTSET_g, align 8, !tbaa !3
  %36 = call i32 (ptr, ptr, i32, i64, i64, ptr, ...) @H5E_printf_stack(ptr noundef nonnull @.str.2, ptr noundef nonnull @__func__.H5Pset_driver_by_name, i32 noundef 1298, i64 noundef %34, i64 noundef %35, ptr noundef nonnull @.str.17) #15
  br label %.thread28

37:                                               ; preds = %30
  %38 = call i32 @H5E_clear_stack() #15
  %39 = call ptr @H5I_object_verify(i64 noundef %0, i32 noundef 11) #15
  %40 = icmp eq ptr %39, null
  br i1 %40, label %41, label %45, !prof !30

41:                                               ; preds = %37
  %42 = load i64, ptr @H5E_ARGS_g, align 8, !tbaa !3
  %43 = load i64, ptr @H5E_BADTYPE_g, align 8, !tbaa !3
  %44 = call i32 (ptr, ptr, i32, i64, i64, ptr, ...) @H5E_printf_stack(ptr noundef nonnull @.str.2, ptr noundef nonnull @__func__.H5Pset_driver_by_name, i32 noundef 1302, i64 noundef %42, i64 noundef %43, ptr noundef nonnull @.str.29) #15
  br label %.thread34

45:                                               ; preds = %37
  %.not = icmp eq ptr %1, null
  br i1 %.not, label %46, label %50, !prof !30

46:                                               ; preds = %45
  %47 = load i64, ptr @H5E_ARGS_g, align 8, !tbaa !3
  %48 = load i64, ptr @H5E_BADVALUE_g, align 8, !tbaa !3
  %49 = call i32 (ptr, ptr, i32, i64, i64, ptr, ...) @H5E_printf_stack(ptr noundef nonnull @.str.2, ptr noundef nonnull @__func__.H5Pset_driver_by_name, i32 noundef 1304, i64 noundef %47, i64 noundef %48, ptr noundef nonnull @.str.33) #15
  br label %.thread34

50:                                               ; preds = %45
  %51 = load i8, ptr %1, align 1, !tbaa !21
  %.not19 = icmp eq i8 %51, 0
  br i1 %.not19, label %52, label %56, !prof !30

52:                                               ; preds = %50
  %53 = load i64, ptr @H5E_ARGS_g, align 8, !tbaa !3
  %54 = load i64, ptr @H5E_BADVALUE_g, align 8, !tbaa !3
  %55 = call i32 (ptr, ptr, i32, i64, i64, ptr, ...) @H5E_printf_stack(ptr noundef nonnull @.str.2, ptr noundef nonnull @__func__.H5Pset_driver_by_name, i32 noundef 1306, i64 noundef %53, i64 noundef %54, ptr noundef nonnull @.str.34) #15
  br label %.thread34

56:                                               ; preds = %50
  %57 = call i32 @H5P_set_driver_by_name(ptr noundef nonnull %39, ptr noundef nonnull %1, ptr noundef %2, i1 noundef zeroext true)
  %58 = icmp slt i32 %57, 0
  br i1 %58, label %59, label %64, !prof !30

59:                                               ; preds = %56
  %60 = load i64, ptr @H5E_PLIST_g, align 8, !tbaa !3
  %61 = load i64, ptr @H5E_CANTSET_g, align 8, !tbaa !3
  %62 = call i32 (ptr, ptr, i32, i64, i64, ptr, ...) @H5E_printf_stack(ptr noundef nonnull @.str.2, ptr noundef nonnull @__func__.H5Pset_driver_by_name, i32 noundef 1310, i64 noundef %60, i64 noundef %61, ptr noundef nonnull @.str.30) #15
  br label %.thread34

.thread34:                                        ; preds = %46, %52, %59, %41
  %63 = call i32 @H5CX_pop(i1 noundef zeroext true) #15
  br label %.thread28

64:                                               ; preds = %56
  %65 = call i32 @H5CX_pop(i1 noundef zeroext true) #15
  br label %67

.thread28:                                        ; preds = %33, %26, %13, %.thread34
  %66 = call i32 @H5E_dump_api_stack() #15
  br label %67

67:                                               ; preds = %64, %.thread28
  %.0162331 = phi i32 [ -1, %.thread28 ], [ 0, %64 ]
  call void @llvm.lifetime.end.p0(i64 480, ptr nonnull %4) #15
  ret i32 %.0162331
}